; Function Attrs: mustprogress uwtable
define internal void @"_ZNSt17_Function_handlerIFvRKN3nix11RealisationEEZNS0_9copyPathsERNS0_5StoreES6_RKSt3setINS0_12RealisedPathESt4lessIS8_ESaIS8_EENS0_10RepairFlagENS0_13CheckSigsFlagENS0_14SubstituteFlagEE3$_1E9_M_invokeERKSt9_Any_dataS3_"(ptr nocapture noundef nonnull readonly align 8 dereferenceable(16) %0, ptr noundef nonnull align 8 dereferenceable(240) %1) #5 align 2 {
  %.val = load ptr, ptr %0, align 8
  %3 = getelementptr inbounds i8, ptr %0, i64 8
  %.val2 = load ptr, ptr %3, align 8
  %.val2.val = load i8, ptr %.val2, align 1
  %4 = and i8 %.val2.val, 1
  %5 = icmp ne i8 %4, 0
  %6 = load ptr, ptr %.val, align 8
  %7 = getelementptr inbounds i8, ptr %6, i64 200
  %8 = load ptr, ptr %7, align 8
  tail call void %8(ptr noundef nonnull align 8 dereferenceable(264) %.val, ptr noundef nonnull align 8 dereferenceable(240) %1, i1 noundef zeroext %5)
  ret void
}